target datalayout = "e-m:e-p270:32:32-p271:32:32-p272:64:64-i64:64-i128:128-f80:128-n8:16:32:64-S128"
target triple = "x86_64-pc-linux-gnu"

%struct.DdManager = type { %struct.DdNode, ptr, ptr, ptr, ptr, ptr, ptr, ptr, i32, i32, double, double, double, i32, i32, i32, i32, i32, i32, ptr, ptr, %struct.DdSubtable, i32, i32, i32, i32, i32, i32, i32, double, i32, i32, i32, ptr, i64, double, i32, ptr, ptr, ptr, ptr, ptr, ptr, ptr, i32, ptr, ptr, ptr, ptr, ptr, ptr, i32, i32, i32, double, i32, i32, i32, i32, double, double, i32, i32, i32, i32, i32, i32, i32, i32, i32, ptr, ptr, i32, i32, i32, i32, i32, i32, ptr, ptr, ptr, ptr, ptr, ptr, ptr, ptr, i32, i64, i64, i64, i32, i64, i64, double, double, double, double, double, double, i32, ptr, ptr, i64 }
%struct.DdNode = type { i32, i32, ptr, %union.anon, i64 }
%union.anon = type { %struct.DdChildren }
%struct.DdChildren = type { ptr, ptr }
%struct.DdSubtable = type { ptr, i32, i32, i32, i32, i32, i32, i32, i32, i32, i32, i32 }

; Function Attrs: nounwind uwtable
define ptr @Cudd_VectorSupport(ptr noundef %0, ptr noundef %1, i32 noundef %2) #0 {
  %4 = alloca ptr, align 8
  %5 = alloca ptr, align 8
  %6 = alloca ptr, align 8
  %7 = alloca i32, align 4
  %8 = alloca ptr, align 8
  %9 = alloca ptr, align 8
  %10 = alloca ptr, align 8
  %11 = alloca ptr, align 8
  %12 = alloca i32, align 4
  %13 = alloca i32, align 4
  %14 = alloca i32, align 4
  store ptr %0, ptr %5, align 8
  store ptr %1, ptr %6, align 8
  store i32 %2, ptr %7, align 4
  %15 = load ptr, ptr %5, align 8
  %16 = getelementptr inbounds %struct.DdManager, ptr %15, i32 0, i32 16
  %17 = load i32, ptr %16, align 4
  %18 = load ptr, ptr %5, align 8
  %19 = getelementptr inbounds %struct.DdManager, ptr %18, i32 0, i32 15
  %20 = load i32, ptr %19, align 8
  %21 = icmp sgt i32 %17, %20
  br i1 %21, label %22, label %26

22:                                               ; preds = %3
  %23 = load ptr, ptr %5, align 8
  %24 = getelementptr inbounds %struct.DdManager, ptr %23, i32 0, i32 16
  %25 = load i32, ptr %24, align 4
  br label %30

26:                                               ; preds = %3
  %27 = load ptr, ptr %5, align 8
  %28 = getelementptr inbounds %struct.DdManager, ptr %27, i32 0, i32 15
  %29 = load i32, ptr %28, align 8
  br label %30

30:                                               ; preds = %26, %22
  %31 = phi i32 [ %25, %22 ], [ %29, %26 ]
  store i32 %31, ptr %14, align 4
  %32 = load i32, ptr %14, align 4
  %33 = sext i32 %32 to i64
  %34 = mul i64 4, %33
  %35 = call noalias ptr @malloc(i64 noundef %34) #5
  store ptr %35, ptr %8, align 8
  %36 = load ptr, ptr %8, align 8
  %37 = icmp eq ptr %36, null
  br i1 %37, label %38, label %41

38:                                               ; preds = %30
  %39 = load ptr, ptr %5, align 8
  %40 = getelementptr inbounds %struct.DdManager, ptr %39, i32 0, i32 86
  store i32 1, ptr %40, align 8
  store ptr null, ptr %4, align 8
  br label %198

41:                                               ; preds = %30
  store i32 0, ptr %12, align 4
  br label %42

42:                                               ; preds = %51, %41
  %43 = load i32, ptr %12, align 4
  %44 = load i32, ptr %14, align 4
  %45 = icmp slt i32 %43, %44
  br i1 %45, label %46, label %54

46:                                               ; preds = %42
  %47 = load ptr, ptr %8, align 8
  %48 = load i32, ptr %12, align 4
  %49 = sext i32 %48 to i64
  %50 = getelementptr inbounds i32, ptr %47, i64 %49
  store i32 0, ptr %50, align 4
  br label %51

51:                                               ; preds = %46
  %52 = load i32, ptr %12, align 4
  %53 = add nsw i32 %52, 1
  store i32 %53, ptr %12, align 4
  br label %42, !llvm.loop !19

54:                                               ; preds = %42
  store i32 0, ptr %12, align 4
  br label %55

55:                                               ; preds = %69, %54
  %56 = load i32, ptr %12, align 4
  %57 = load i32, ptr %7, align 4
  %58 = icmp slt i32 %56, %57
  br i1 %58, label %59, label %72

59:                                               ; preds = %55
  %60 = load ptr, ptr %6, align 8
  %61 = load i32, ptr %12, align 4
  %62 = sext i32 %61 to i64
  %63 = getelementptr inbounds ptr, ptr %60, i64 %62
  %64 = load ptr, ptr %63, align 8
  %65 = ptrtoint ptr %64 to i64
  %66 = and i64 %65, -2
  %67 = inttoptr i64 %66 to ptr
  %68 = load ptr, ptr %8, align 8
  call void @ddSupportStep(ptr noundef %67, ptr noundef %68)
  br label %69

69:                                               ; preds = %59
  %70 = load i32, ptr %12, align 4
  %71 = add nsw i32 %70, 1
  store i32 %71, ptr %12, align 4
  br label %55, !llvm.loop !20

72:                                               ; preds = %55
  store i32 0, ptr %12, align 4
  br label %73

73:                                               ; preds = %86, %72
  %74 = load i32, ptr %12, align 4
  %75 = load i32, ptr %7, align 4
  %76 = icmp slt i32 %74, %75
  br i1 %76, label %77, label %89

77:                                               ; preds = %73
  %78 = load ptr, ptr %6, align 8
  %79 = load i32, ptr %12, align 4
  %80 = sext i32 %79 to i64
  %81 = getelementptr inbounds ptr, ptr %78, i64 %80
  %82 = load ptr, ptr %81, align 8
  %83 = ptrtoint ptr %82 to i64
  %84 = and i64 %83, -2
  %85 = inttoptr i64 %84 to ptr
  call void @ddClearFlag(ptr noundef %85)
  br label %86

86:                                               ; preds = %77
  %87 = load i32, ptr %12, align 4
  %88 = add nsw i32 %87, 1
  store i32 %88, ptr %12, align 4
  br label %73, !llvm.loop !21

89:                                               ; preds = %73
  %90 = load ptr, ptr %5, align 8
  %91 = getelementptr inbounds %struct.DdManager, ptr %90, i32 0, i32 1
  %92 = load ptr, ptr %91, align 8
  store ptr %92, ptr %9, align 8
  %93 = load ptr, ptr %9, align 8
  %94 = ptrtoint ptr %93 to i64
  %95 = and i64 %94, -2
  %96 = inttoptr i64 %95 to ptr
  %97 = getelementptr inbounds %struct.DdNode, ptr %96, i32 0, i32 1
  %98 = load i32, ptr %97, align 4
  %99 = add i32 %98, 1
  store i32 %99, ptr %97, align 4
  %100 = load i32, ptr %14, align 4
  %101 = sub nsw i32 %100, 1
  store i32 %101, ptr %13, align 4
  br label %102

102:                                              ; preds = %180, %89
  %103 = load i32, ptr %13, align 4
  %104 = icmp sge i32 %103, 0
  br i1 %104, label %105, label %183

105:                                              ; preds = %102
  %106 = load i32, ptr %13, align 4
  %107 = load ptr, ptr %5, align 8
  %108 = getelementptr inbounds %struct.DdManager, ptr %107, i32 0, i32 15
  %109 = load i32, ptr %108, align 8
  %110 = icmp sge i32 %106, %109
  br i1 %110, label %111, label %113

111:                                              ; preds = %105
  %112 = load i32, ptr %13, align 4
  br label %121

113:                                              ; preds = %105
  %114 = load ptr, ptr %5, align 8
  %115 = getelementptr inbounds %struct.DdManager, ptr %114, i32 0, i32 39
  %116 = load ptr, ptr %115, align 8
  %117 = load i32, ptr %13, align 4
  %118 = sext i32 %117 to i64
  %119 = getelementptr inbounds i32, ptr %116, i64 %118
  %120 = load i32, ptr %119, align 4
  br label %121

121:                                              ; preds = %113, %111
  %122 = phi i32 [ %112, %111 ], [ %120, %113 ]
  store i32 %122, ptr %12, align 4
  %123 = load ptr, ptr %8, align 8
  %124 = load i32, ptr %12, align 4
  %125 = sext i32 %124 to i64
  %126 = getelementptr inbounds i32, ptr %123, i64 %125
  %127 = load i32, ptr %126, align 4
  %128 = icmp eq i32 %127, 1
  br i1 %128, label %129, label %179

129:                                              ; preds = %121
  %130 = load ptr, ptr %5, align 8
  %131 = load i32, ptr %12, align 4
  %132 = load ptr, ptr %5, align 8
  %133 = getelementptr inbounds %struct.DdManager, ptr %132, i32 0, i32 1
  %134 = load ptr, ptr %133, align 8
  %135 = load ptr, ptr %5, align 8
  %136 = getelementptr inbounds %struct.DdManager, ptr %135, i32 0, i32 1
  %137 = load ptr, ptr %136, align 8
  %138 = ptrtoint ptr %137 to i64
  %139 = xor i64 %138, 1
  %140 = inttoptr i64 %139 to ptr
  %141 = call ptr @cuddUniqueInter(ptr noundef %130, i32 noundef %131, ptr noundef %134, ptr noundef %140)
  store ptr %141, ptr %11, align 8
  %142 = load ptr, ptr %11, align 8
  %143 = ptrtoint ptr %142 to i64
  %144 = and i64 %143, -2
  %145 = inttoptr i64 %144 to ptr
  %146 = getelementptr inbounds %struct.DdNode, ptr %145, i32 0, i32 1
  %147 = load i32, ptr %146, align 4
  %148 = add i32 %147, 1
  store i32 %148, ptr %146, align 4
  %149 = load ptr, ptr %5, align 8
  %150 = load ptr, ptr %9, align 8
  %151 = load ptr, ptr %11, align 8
  %152 = call ptr @Cudd_bddAnd(ptr noundef %149, ptr noundef %150, ptr noundef %151)
  store ptr %152, ptr %10, align 8
  %153 = load ptr, ptr %10, align 8
  %154 = icmp eq ptr %153, null
  br i1 %154, label %155, label %166

155:                                              ; preds = %129
  %156 = load ptr, ptr %5, align 8
  %157 = load ptr, ptr %9, align 8
  call void @Cudd_RecursiveDeref(ptr noundef %156, ptr noundef %157)
  %158 = load ptr, ptr %5, align 8
  %159 = load ptr, ptr %11, align 8
  call void @Cudd_RecursiveDeref(ptr noundef %158, ptr noundef %159)
  %160 = load ptr, ptr %8, align 8
  %161 = icmp ne ptr %160, null
  br i1 %161, label %162, label %164

162:                                              ; preds = %155
  %163 = load ptr, ptr %8, align 8
  call void @free(ptr noundef %163) #6
  store ptr null, ptr %8, align 8
  br label %165

164:                                              ; preds = %155
  br label %165

165:                                              ; preds = %164, %162
  store ptr null, ptr %4, align 8
  br label %198

166:                                              ; preds = %129
  %167 = load ptr, ptr %10, align 8
  %168 = ptrtoint ptr %167 to i64
  %169 = and i64 %168, -2
  %170 = inttoptr i64 %169 to ptr
  %171 = getelementptr inbounds %struct.DdNode, ptr %170, i32 0, i32 1
  %172 = load i32, ptr %171, align 4
  %173 = add i32 %172, 1
  store i32 %173, ptr %171, align 4
  %174 = load ptr, ptr %5, align 8
  %175 = load ptr, ptr %9, align 8
  call void @Cudd_RecursiveDeref(ptr noundef %174, ptr noundef %175)
  %176 = load ptr, ptr %5, align 8
  %177 = load ptr, ptr %11, align 8
  call void @Cudd_RecursiveDeref(ptr noundef %176, ptr noundef %177)
  %178 = load ptr, ptr %10, align 8
  store ptr %178, ptr %9, align 8
  br label %179

179:                                              ; preds = %166, %121
  br label %180

180:                                              ; preds = %179
  %181 = load i32, ptr %13, align 4
  %182 = add nsw i32 %181, -1
  store i32 %182, ptr %13, align 4
  br label %102, !llvm.loop !22

183:                                              ; preds = %102
  %184 = load ptr, ptr %8, align 8
  %185 = icmp ne ptr %184, null
  br i1 %185, label %186, label %188

186:                                              ; preds = %183
  %187 = load ptr, ptr %8, align 8
  call void @free(ptr noundef %187) #6
  store ptr null, ptr %8, align 8
  br label %189

188:                                              ; preds = %183
  br label %189

189:                                              ; preds = %188, %186
  %190 = load ptr, ptr %9, align 8
  %191 = ptrtoint ptr %190 to i64
  %192 = and i64 %191, -2
  %193 = inttoptr i64 %192 to ptr
  %194 = getelementptr inbounds %struct.DdNode, ptr %193, i32 0, i32 1
  %195 = load i32, ptr %194, align 4
  %196 = add i32 %195, -1
  store i32 %196, ptr %194, align 4
  %197 = load ptr, ptr %9, align 8
  store ptr %197, ptr %4, align 8
  br label %198

198:                                              ; preds = %189, %165, %38
  %199 = load ptr, ptr %4, align 8
  ret ptr %199
}