; Function Attrs: nounwind uwtable
define ptr @Cudd_VectorSupport(ptr noundef %0, ptr noundef readonly captures(none) %1, i32 noundef %2) local_unnamed_addr #0 {
  %4 = getelementptr inbounds nuw i8, ptr %0, i64 140
  %5 = load i32, ptr %4, align 4
  %6 = getelementptr inbounds nuw i8, ptr %0, i64 136
  %7 = load i32, ptr %6, align 8
  %. = tail call i32 @llvm.smax.i32(i32 %5, i32 %7)
  %8 = sext i32 %. to i64
  %9 = shl nsw i64 %8, 2
  %10 = tail call noalias ptr @malloc(i64 noundef %9) #22
  %11 = icmp eq ptr %10, null
  br i1 %11, label %15, label %.preheader71

.preheader71:                                     ; preds = %3
  %12 = icmp sgt i32 %., 0
  br i1 %12, label %.lr.ph.preheader, label %.preheader70

.lr.ph.preheader:                                 ; preds = %.preheader71
  %13 = zext nneg i32 %. to i64
  %14 = shl nuw nsw i64 %13, 2
  tail call void @llvm.memset.p0.i64(ptr nonnull align 4 %10, i8 0, i64 %14, i1 false)
  br label %.preheader70

15:                                               ; preds = %3
  %16 = getelementptr inbounds nuw i8, ptr %0, i64 624
  store i32 1, ptr %16, align 8
  br label %79

.preheader70:                                     ; preds = %.lr.ph.preheader, %.preheader71
  %17 = icmp sgt i32 %2, 0
  br i1 %17, label %.lr.ph75.preheader, label %._crit_edge

.lr.ph75.preheader:                               ; preds = %.preheader70
  %wide.trip.count = zext nneg i32 %2 to i64
  br label %.lr.ph75

.lr.ph77.preheader:                               ; preds = %.lr.ph75
  %wide.trip.count91 = zext nneg i32 %2 to i64
  br label %.lr.ph77

.lr.ph75:                                         ; preds = %.lr.ph75.preheader, %.lr.ph75
  %indvars.iv = phi i64 [ 0, %.lr.ph75.preheader ], [ %indvars.iv.next, %.lr.ph75 ]
  %18 = getelementptr inbounds nuw ptr, ptr %1, i64 %indvars.iv
  %19 = load ptr, ptr %18, align 8
  %20 = ptrtoint ptr %19 to i64
  %21 = and i64 %20, -2
  %22 = inttoptr i64 %21 to ptr
  tail call fastcc void @ddSupportStep(ptr noundef %22, ptr noundef %10)
  %indvars.iv.next = add nuw nsw i64 %indvars.iv, 1
  %exitcond.not = icmp eq i64 %indvars.iv.next, %wide.trip.count
  br i1 %exitcond.not, label %.lr.ph77.preheader, label %.lr.ph75, !llvm.loop !18

.lr.ph77:                                         ; preds = %.lr.ph77.preheader, %.lr.ph77
  %indvars.iv88 = phi i64 [ 0, %.lr.ph77.preheader ], [ %indvars.iv.next89, %.lr.ph77 ]
  %23 = getelementptr inbounds nuw ptr, ptr %1, i64 %indvars.iv88
  %24 = load ptr, ptr %23, align 8
  %25 = ptrtoint ptr %24 to i64
  %26 = and i64 %25, -2
  %27 = inttoptr i64 %26 to ptr
  tail call fastcc void @ddClearFlag(ptr noundef %27)
  %indvars.iv.next89 = add nuw nsw i64 %indvars.iv88, 1
  %exitcond92.not = icmp eq i64 %indvars.iv.next89, %wide.trip.count91
  br i1 %exitcond92.not, label %._crit_edge, label %.lr.ph77, !llvm.loop !19

._crit_edge:                                      ; preds = %.lr.ph77, %.preheader70
  %28 = getelementptr inbounds nuw i8, ptr %0, i64 40
  %29 = load ptr, ptr %28, align 8
  %30 = ptrtoint ptr %29 to i64
  %31 = and i64 %30, -2
  %32 = inttoptr i64 %31 to ptr
  %33 = getelementptr inbounds nuw i8, ptr %32, i64 4
  %34 = load i32, ptr %33, align 4
  %35 = add i32 %34, 1
  store i32 %35, ptr %33, align 4
  br i1 %12, label %.lr.ph83, label %._crit_edge84

.lr.ph83:                                         ; preds = %._crit_edge
  %36 = getelementptr inbounds nuw i8, ptr %0, i64 328
  %37 = zext nneg i32 %. to i64
  br label %38

38:                                               ; preds = %.lr.ph83, %74
  %indvars.iv93 = phi i64 [ %37, %.lr.ph83 ], [ %indvars.iv.next94, %74 ]
  %.06279 = phi ptr [ %29, %.lr.ph83 ], [ %.163, %74 ]
  %indvars.iv.next94 = add nsw i64 %indvars.iv93, -1
  %39 = load i32, ptr %6, align 8
  %40 = sext i32 %39 to i64
  %.not.not = icmp sgt i64 %indvars.iv93, %40
  %41 = trunc nuw nsw i64 %indvars.iv.next94 to i32
  br i1 %.not.not, label %46, label %42

42:                                               ; preds = %38
  %43 = load ptr, ptr %36, align 8
  %44 = getelementptr inbounds nuw i32, ptr %43, i64 %indvars.iv.next94
  %45 = load i32, ptr %44, align 4
  br label %46

46:                                               ; preds = %38, %42
  %47 = phi i32 [ %45, %42 ], [ %41, %38 ]
  %48 = sext i32 %47 to i64
  %49 = getelementptr inbounds i32, ptr %10, i64 %48
  %50 = load i32, ptr %49, align 4
  %51 = icmp eq i32 %50, 1
  br i1 %51, label %52, label %74

52:                                               ; preds = %46
  %53 = load ptr, ptr %28, align 8
  %54 = ptrtoint ptr %53 to i64
  %55 = xor i64 %54, 1
  %56 = inttoptr i64 %55 to ptr
  %57 = tail call ptr @cuddUniqueInter(ptr noundef nonnull %0, i32 noundef %47, ptr noundef %53, ptr noundef %56) #23
  %58 = ptrtoint ptr %57 to i64
  %59 = and i64 %58, -2
  %60 = inttoptr i64 %59 to ptr
  %61 = getelementptr inbounds nuw i8, ptr %60, i64 4
  %62 = load i32, ptr %61, align 4
  %63 = add i32 %62, 1
  store i32 %63, ptr %61, align 4
  %64 = tail call ptr @Cudd_bddAnd(ptr noundef nonnull %0, ptr noundef %.06279, ptr noundef %57) #23
  %65 = icmp eq ptr %64, null
  br i1 %65, label %66, label %67

66:                                               ; preds = %52
  tail call void @Cudd_RecursiveDeref(ptr noundef nonnull %0, ptr noundef %.06279) #23
  tail call void @Cudd_RecursiveDeref(ptr noundef nonnull %0, ptr noundef %57) #23
  tail call void @free(ptr noundef nonnull %10) #23
  br label %79

67:                                               ; preds = %52
  %68 = ptrtoint ptr %64 to i64
  %69 = and i64 %68, -2
  %70 = inttoptr i64 %69 to ptr
  %71 = getelementptr inbounds nuw i8, ptr %70, i64 4
  %72 = load i32, ptr %71, align 4
  %73 = add i32 %72, 1
  store i32 %73, ptr %71, align 4
  tail call void @Cudd_RecursiveDeref(ptr noundef nonnull %0, ptr noundef %.06279) #23
  tail call void @Cudd_RecursiveDeref(ptr noundef nonnull %0, ptr noundef %57) #23
  br label %74

74:                                               ; preds = %46, %67
  %.163 = phi ptr [ %64, %67 ], [ %.06279, %46 ]
  %75 = icmp samesign ugt i64 %indvars.iv93, 1
  br i1 %75, label %38, label %._crit_edge84.loopexit, !llvm.loop !20

._crit_edge84.loopexit:                           ; preds = %74
  %.pre = ptrtoint ptr %.163 to i64
  %.pre96 = and i64 %.pre, -2
  %.pre98 = inttoptr i64 %.pre96 to ptr
  br label %._crit_edge84

._crit_edge84:                                    ; preds = %._crit_edge84.loopexit, %._crit_edge
  %.pre-phi99 = phi ptr [ %.pre98, %._crit_edge84.loopexit ], [ %32, %._crit_edge ]
  %.062.lcssa = phi ptr [ %.163, %._crit_edge84.loopexit ], [ %29, %._crit_edge ]
  tail call void @free(ptr noundef %10) #23
  %76 = getelementptr inbounds nuw i8, ptr %.pre-phi99, i64 4
  %77 = load i32, ptr %76, align 4
  %78 = add i32 %77, -1
  store i32 %78, ptr %76, align 4
  br label %79

79:                                               ; preds = %._crit_edge84, %66, %15
  %.0 = phi ptr [ null, %15 ], [ null, %66 ], [ %.062.lcssa, %._crit_edge84 ]
  ret ptr %.0
}